target datalayout = "e-m:e-p270:32:32-p271:32:32-p272:64:64-i64:64-i128:128-f80:128-n8:16:32:64-S128"
target triple = "x86_64-pc-linux-gnu"

%class.symbol = type { ptr }
%class.ast_manager = type { %class.reslimit, %class.small_object_allocator, %class.family_manager, %class.parray_manager, %class.dependency_manager, %class.parray_manager.10, %class.ptr_vector.13, i32, i8, %class.ast_table, %class.obj_map, %class.id_gen, %class.id_gen, ptr, ptr, ptr, ptr, ptr, i32, i8, [3 x i8], %class.u_map, ptr, i8, i8, ptr, %class.symbol, %class.obj_map.21, ptr }
%class.reslimit = type { %"struct.std::atomic", i8, i64, i64, %class.svector, %class.ptr_vector }
%"struct.std::atomic" = type { %"struct.std::__atomic_base" }
%"struct.std::__atomic_base" = type { i32 }
%class.svector = type { %class.vector }
%class.vector = type { ptr }
%class.ptr_vector = type { %class.vector.0 }
%class.vector.0 = type { ptr }
%class.small_object_allocator = type { [32 x ptr], [32 x ptr], i64 }
%class.family_manager = type { i32, %class.symbol_table, %class.svector.4 }
%class.symbol_table = type { %class.core_hashtable, %class.vector.1, %class.svector.2 }
%class.core_hashtable = type <{ ptr, i32, i32, i32, [4 x i8] }>
%class.vector.1 = type { ptr }
%class.svector.2 = type { %class.vector.3 }
%class.vector.3 = type { ptr }
%class.svector.4 = type { %class.vector.5 }
%class.vector.5 = type { ptr }
%class.parray_manager = type { ptr, ptr, %class.ptr_vector.6, %class.ptr_vector.6 }
%class.ptr_vector.6 = type { %class.vector.7 }
%class.vector.7 = type { ptr }
%class.dependency_manager = type { ptr, ptr, %class.ptr_vector.8 }
%class.ptr_vector.8 = type { %class.vector.9 }
%class.vector.9 = type { ptr }
%class.parray_manager.10 = type { ptr, ptr, %class.ptr_vector.11, %class.ptr_vector.11 }
%class.ptr_vector.11 = type { %class.vector.12 }
%class.vector.12 = type { ptr }
%class.ptr_vector.13 = type { %class.vector.14 }
%class.vector.14 = type { ptr }
%class.ast_table = type { %class.chashtable }
%class.chashtable = type { ptr, i32, i32, i32, i32, i32, i32, i32, ptr, ptr, ptr }
%class.obj_map = type { %class.core_hashtable.15 }
%class.core_hashtable.15 = type <{ ptr, i32, i32, i32, [4 x i8] }>
%class.id_gen = type { i32, %class.svector.17 }
%class.svector.17 = type { %class.vector.18 }
%class.vector.18 = type { ptr }
%class.u_map = type { %class.map }
%class.map = type { %class.table2map }
%class.table2map = type { %class.core_hashtable.19 }
%class.core_hashtable.19 = type <{ ptr, i32, i32, i32, [4 x i8] }>
%class.obj_map.21 = type { %class.core_hashtable.22 }
%class.core_hashtable.22 = type <{ ptr, i32, i32, i32, [4 x i8] }>

; Function Attrs: mustprogress uwtable
define linkonce_odr hidden noundef ptr @_ZN11ast_manager6mk_andEjPKP4expr(ptr noundef nonnull align 8 dereferenceable(976) %0, i32 noundef %1, ptr noundef %2) #4 comdat align 2 {
  %4 = alloca ptr, align 8
  %5 = alloca i32, align 4
  %6 = alloca ptr, align 8
  store ptr %0, ptr %4, align 8, !tbaa !3
  store i32 %1, ptr %5, align 4, !tbaa !10
  store ptr %2, ptr %6, align 8, !tbaa !12
  %7 = load ptr, ptr %4, align 8
  %8 = load i32, ptr %5, align 4, !tbaa !10
  %9 = load ptr, ptr %6, align 8, !tbaa !12
  %10 = call noundef ptr @_ZN11ast_manager6mk_appEiijPKP4expr(ptr noundef nonnull align 8 dereferenceable(976) %7, i32 noundef 0, i32 noundef 5, i32 noundef %8, ptr noundef %9)
  ret ptr %10
}

; Function Attrs: mustprogress nounwind uwtable
define linkonce_odr hidden noundef ptr @_ZNK11ast_manager7mk_trueEv(ptr noundef nonnull align 8 dereferenceable(976) %0) #6 comdat align 2 {
  %2 = alloca ptr, align 8
  store ptr %0, ptr %2, align 8, !tbaa !3
  %3 = load ptr, ptr %2, align 8
  %4 = getelementptr inbounds nuw %class.ast_manager, ptr %3, i32 0, i32 15
  %5 = load ptr, ptr %4, align 8, !tbaa !66
  ret ptr %5
}

; Function Attrs: inlinehint mustprogress nounwind uwtable
define linkonce_odr hidden noundef ptr @_Z6to_appP3ast(ptr noundef %0) #8 comdat {
  %2 = alloca ptr, align 8
  store ptr %0, ptr %2, align 8, !tbaa !41
  %3 = load ptr, ptr %2, align 8, !tbaa !41
  ret ptr %3
}

; Function Attrs: mustprogress uwtable
define hidden noundef ptr @_Z6mk_andR11ast_managerjPKP4expr(ptr noundef nonnull align 8 dereferenceable(976) %0, i32 noundef %1, ptr noundef %2) #4 {
  %4 = alloca ptr, align 8
  %5 = alloca ptr, align 8
  %6 = alloca i32, align 4
  %7 = alloca ptr, align 8
  store ptr %0, ptr %5, align 8, !tbaa !3
  store i32 %1, ptr %6, align 4, !tbaa !10
  store ptr %2, ptr %7, align 8, !tbaa !12
  %8 = load i32, ptr %6, align 4, !tbaa !10
  %9 = icmp eq i32 %8, 0
  br i1 %9, label %10, label %13

10:                                               ; preds = %3
  %11 = load ptr, ptr %5, align 8, !tbaa !3
  %12 = call noundef ptr @_ZNK11ast_manager7mk_trueEv(ptr noundef nonnull align 8 dereferenceable(976) %11)
  store ptr %12, ptr %4, align 8
  br label %25

13:                                               ; preds = %3
  %14 = load i32, ptr %6, align 4, !tbaa !10
  %15 = icmp eq i32 %14, 1
  br i1 %15, label %16, label %20

16:                                               ; preds = %13
  %17 = load ptr, ptr %7, align 8, !tbaa !12
  %18 = getelementptr inbounds ptr, ptr %17, i64 0
  %19 = load ptr, ptr %18, align 8, !tbaa !15
  store ptr %19, ptr %4, align 8
  br label %25

20:                                               ; preds = %13
  %21 = load ptr, ptr %5, align 8, !tbaa !3
  %22 = load i32, ptr %6, align 4, !tbaa !10
  %23 = load ptr, ptr %7, align 8, !tbaa !12
  %24 = call noundef ptr @_ZN11ast_manager6mk_andEjPKP4expr(ptr noundef nonnull align 8 dereferenceable(976) %21, i32 noundef %22, ptr noundef %23)
  store ptr %24, ptr %4, align 8
  br label %25

25:                                               ; preds = %20, %16, %10
  %26 = load ptr, ptr %4, align 8
  ret ptr %26
}

; Function Attrs: mustprogress uwtable
define hidden noundef ptr @_Z6mk_andR11ast_managerjPKP3app(ptr noundef nonnull align 8 dereferenceable(976) %0, i32 noundef %1, ptr noundef %2) #4 {
  %4 = alloca ptr, align 8
  %5 = alloca i32, align 4
  %6 = alloca ptr, align 8
  store ptr %0, ptr %4, align 8, !tbaa !3
  store i32 %1, ptr %5, align 4, !tbaa !10
  store ptr %2, ptr %6, align 8, !tbaa !131
  %7 = load ptr, ptr %4, align 8, !tbaa !3
  %8 = load i32, ptr %5, align 4, !tbaa !10
  %9 = load ptr, ptr %6, align 8, !tbaa !131
  %10 = call noundef ptr @_Z6mk_andR11ast_managerjPKP4expr(ptr noundef nonnull align 8 dereferenceable(976) %7, i32 noundef %8, ptr noundef %9)
  %11 = call noundef ptr @_Z6to_appP3ast(ptr noundef %10)
  ret ptr %11
}